target datalayout = "e-m:e-p270:32:32-p271:32:32-p272:64:64-i64:64-i128:128-f80:128-n8:16:32:64-S128"
target triple = "x86_64-pc-linux-gnu"

%"class.std::__shared_count" = type { ptr }
%"class.std::shared_ptr" = type { %"class.std::__shared_ptr" }
%"class.std::__shared_ptr" = type { ptr, %"class.std::__shared_count" }
%"class.std::shared_ptr.2" = type { %"class.std::__shared_ptr.3" }
%"class.std::__shared_ptr.3" = type { ptr, %"class.std::__shared_count" }
%"class.std::unique_ptr" = type { %"struct.std::__uniq_ptr_data" }
%"struct.std::__uniq_ptr_data" = type { %"class.std::__uniq_ptr_impl" }
%"class.std::__uniq_ptr_impl" = type { %"class.std::tuple" }
%"class.std::tuple" = type { %"struct.std::_Tuple_impl" }
%"struct.std::_Tuple_impl" = type { %"struct.std::_Head_base.1" }
%"struct.std::_Head_base.1" = type { ptr }
%"class.std::unique_ptr.34" = type { %"struct.std::__uniq_ptr_data.35" }
%"struct.std::__uniq_ptr_data.35" = type { %"class.std::__uniq_ptr_impl.36" }
%"class.std::__uniq_ptr_impl.36" = type { %"class.std::tuple.37" }
%"class.std::tuple.37" = type { %"struct.std::_Tuple_impl.38" }
%"struct.std::_Tuple_impl.38" = type { %"struct.std::_Head_base.41" }
%"struct.std::_Head_base.41" = type { ptr }
%"class.std::unique_ptr.42" = type { %"struct.std::__uniq_ptr_data.43" }
%"struct.std::__uniq_ptr_data.43" = type { %"class.std::__uniq_ptr_impl.44" }
%"class.std::__uniq_ptr_impl.44" = type { %"class.std::tuple.45" }
%"class.std::tuple.45" = type { %"struct.std::_Tuple_impl.46" }
%"struct.std::_Tuple_impl.46" = type { %"struct.std::_Head_base.49" }
%"struct.std::_Head_base.49" = type { ptr }
%"class.std::thread" = type { %"class.std::thread::id" }
%"class.std::thread::id" = type { i64 }
%"class.std::shared_ptr.31" = type { %"class.std::__shared_ptr.32" }
%"class.std::__shared_ptr.32" = type { ptr, %"class.std::__shared_count" }
%"class.cmDebugger::cmDebuggerAdapter" = type <{ %"class.std::shared_ptr", %"class.std::unique_ptr", %"class.std::shared_ptr.2", %"class.std::thread", %"struct.std::atomic", [7 x i8], %"class.std::mutex", %"class.std::unique_ptr.5", %"class.std::unique_ptr.5", %"class.std::unique_ptr.13", %"struct.std::atomic.21", %"struct.std::atomic", [7 x i8], %"struct.std::atomic.21", %"struct.std::atomic", [7 x i8], %"class.std::unique_ptr.23", %"class.std::shared_ptr.31", %"class.std::unique_ptr.34", %"class.std::unique_ptr.42", i8, [7 x i8] }>
%"class.std::mutex" = type { %"class.std::__mutex_base" }
%"class.std::__mutex_base" = type { %union.pthread_mutex_t }
%union.pthread_mutex_t = type { %struct.__pthread_mutex_s }
%struct.__pthread_mutex_s = type { i32, i32, i32, i32, i32, i16, i16, %struct.__pthread_internal_list }
%struct.__pthread_internal_list = type { ptr, ptr }
%"class.std::unique_ptr.5" = type { %"struct.std::__uniq_ptr_data.6" }
%"struct.std::__uniq_ptr_data.6" = type { %"class.std::__uniq_ptr_impl.7" }
%"class.std::__uniq_ptr_impl.7" = type { %"class.std::tuple.8" }
%"class.std::tuple.8" = type { %"struct.std::_Tuple_impl.9" }
%"struct.std::_Tuple_impl.9" = type { %"struct.std::_Head_base.12" }
%"struct.std::_Head_base.12" = type { ptr }
%"class.std::unique_ptr.13" = type { %"struct.std::__uniq_ptr_data.14" }
%"struct.std::__uniq_ptr_data.14" = type { %"class.std::__uniq_ptr_impl.15" }
%"class.std::__uniq_ptr_impl.15" = type { %"class.std::tuple.16" }
%"class.std::tuple.16" = type { %"struct.std::_Tuple_impl.17" }
%"struct.std::_Tuple_impl.17" = type { %"struct.std::_Head_base.20" }
%"struct.std::_Head_base.20" = type { ptr }
%"struct.std::atomic.21" = type { %"struct.std::__atomic_base.22" }
%"struct.std::__atomic_base.22" = type { i64 }
%"struct.std::atomic" = type { %"struct.std::__atomic_base" }
%"struct.std::__atomic_base" = type { i8 }
%"class.std::unique_ptr.23" = type { %"struct.std::__uniq_ptr_data.24" }
%"struct.std::__uniq_ptr_data.24" = type { %"class.std::__uniq_ptr_impl.25" }
%"class.std::__uniq_ptr_impl.25" = type { %"class.std::tuple.26" }
%"class.std::tuple.26" = type { %"struct.std::_Tuple_impl.27" }
%"struct.std::_Tuple_impl.27" = type { %"struct.std::_Head_base.30" }
%"struct.std::_Head_base.30" = type { ptr }

; Function Attrs: mustprogress nounwind uwtable
define linkonce_odr dso_local void @_ZNSt6atomicIbE5storeEbSt12memory_order(ptr noundef nonnull align 1 dereferenceable(1) %0, i1 noundef zeroext %1, i32 noundef %2) #5 comdat align 2 {
  %4 = alloca ptr, align 8
  %5 = alloca i8, align 1
  %6 = alloca i32, align 4
  %7 = alloca i32, align 4
  %8 = alloca i8, align 1
  %9 = alloca ptr, align 8
  %10 = alloca i8, align 1
  %11 = alloca i32, align 4
  store ptr %0, ptr %9, align 8
  %12 = zext i1 %1 to i8
  store i8 %12, ptr %10, align 1
  store i32 %2, ptr %11, align 4
  %13 = load ptr, ptr %9, align 8
  %14 = getelementptr inbounds %"struct.std::atomic", ptr %13, i32 0, i32 0
  %15 = load i8, ptr %10, align 1
  %16 = trunc i8 %15 to i1
  %17 = load i32, ptr %11, align 4
  store ptr %14, ptr %4, align 8
  %18 = zext i1 %16 to i8
  store i8 %18, ptr %5, align 1
  store i32 %17, ptr %6, align 4
  %19 = load ptr, ptr %4, align 8
  %20 = load i32, ptr %6, align 4
  %21 = call noundef i32 @_ZStanSt12memory_orderSt23__memory_order_modifier(i32 noundef %20, i32 noundef 65535)
  store i32 %21, ptr %7, align 4
  %22 = load i32, ptr %6, align 4
  %23 = load i8, ptr %5, align 1
  %24 = trunc i8 %23 to i1
  %25 = zext i1 %24 to i8
  store i8 %25, ptr %8, align 1
  switch i32 %22, label %26 [
    i32 3, label %28
    i32 5, label %30
  ]

26:                                               ; preds = %3
  %27 = load i8, ptr %8, align 1
  store atomic i8 %27, ptr %19 monotonic, align 1
  br label %32

28:                                               ; preds = %3
  %29 = load i8, ptr %8, align 1
  store atomic i8 %29, ptr %19 release, align 1
  br label %32

30:                                               ; preds = %3
  %31 = load i8, ptr %8, align 1
  store atomic i8 %31, ptr %19 seq_cst, align 1
  br label %32

32:                                               ; preds = %30, %28, %26
  ret void
}

; Function Attrs: mustprogress nounwind uwtable
define linkonce_odr dso_local noundef i32 @_ZStanSt12memory_orderSt23__memory_order_modifier(i32 noundef %0, i32 noundef %1) #5 comdat {
  %3 = alloca i32, align 4
  %4 = alloca i32, align 4
  store i32 %0, ptr %3, align 4
  store i32 %1, ptr %4, align 4
  %5 = load i32, ptr %3, align 4
  %6 = load i32, ptr %4, align 4
  %7 = and i32 %5, %6
  ret i32 %7
}

; Function Attrs: mustprogress nounwind uwtable
define dso_local void @_ZN10cmDebugger17cmDebuggerAdapter17ClearStepRequestsEv(ptr noundef nonnull align 8 dereferenceable(193) %0) #5 align 2 {
  %2 = alloca ptr, align 8
  %3 = alloca i64, align 8
  %4 = alloca i32, align 4
  %5 = alloca i32, align 4
  %6 = alloca i64, align 8
  %7 = alloca ptr, align 8
  %8 = alloca i64, align 8
  %9 = alloca i32, align 4
  %10 = alloca i32, align 4
  %11 = alloca i64, align 8
  %12 = alloca ptr, align 8
  store ptr %0, ptr %12, align 8
  %13 = load ptr, ptr %12, align 8
  %14 = getelementptr inbounds %"class.cmDebugger::cmDebuggerAdapter", ptr %13, i32 0, i32 10
  store ptr %14, ptr %2, align 8
  store i64 -2147483648, ptr %3, align 8
  store i32 5, ptr %4, align 4
  %15 = load ptr, ptr %2, align 8
  %16 = load i32, ptr %4, align 4
  %17 = call noundef i32 @_ZStanSt12memory_orderSt23__memory_order_modifier(i32 noundef %16, i32 noundef 65535)
  store i32 %17, ptr %5, align 4
  %18 = load i32, ptr %4, align 4
  %19 = load i64, ptr %3, align 8
  store i64 %19, ptr %6, align 8
  switch i32 %18, label %20 [
    i32 3, label %22
    i32 5, label %24
  ]

20:                                               ; preds = %1
  %21 = load i64, ptr %6, align 8
  store atomic i64 %21, ptr %15 monotonic, align 8
  br label %26

22:                                               ; preds = %1
  %23 = load i64, ptr %6, align 8
  store atomic i64 %23, ptr %15 release, align 8
  br label %26

24:                                               ; preds = %1
  %25 = load i64, ptr %6, align 8
  store atomic i64 %25, ptr %15 seq_cst, align 8
  br label %26

26:                                               ; preds = %24, %22, %20
  %27 = getelementptr inbounds %"class.cmDebugger::cmDebuggerAdapter", ptr %13, i32 0, i32 11
  call void @_ZNSt6atomicIbE5storeEbSt12memory_order(ptr noundef nonnull align 1 dereferenceable(1) %27, i1 noundef zeroext false, i32 noundef 5) #3
  %28 = getelementptr inbounds %"class.cmDebugger::cmDebuggerAdapter", ptr %13, i32 0, i32 13
  store ptr %28, ptr %7, align 8
  store i64 -2147483648, ptr %8, align 8
  store i32 5, ptr %9, align 4
  %29 = load ptr, ptr %7, align 8
  %30 = load i32, ptr %9, align 4
  %31 = call noundef i32 @_ZStanSt12memory_orderSt23__memory_order_modifier(i32 noundef %30, i32 noundef 65535)
  store i32 %31, ptr %10, align 4
  %32 = load i32, ptr %9, align 4
  %33 = load i64, ptr %8, align 8
  store i64 %33, ptr %11, align 8
  switch i32 %32, label %34 [
    i32 3, label %36
    i32 5, label %38
  ]

34:                                               ; preds = %26
  %35 = load i64, ptr %11, align 8
  store atomic i64 %35, ptr %29 monotonic, align 8
  br label %40

36:                                               ; preds = %26
  %37 = load i64, ptr %11, align 8
  store atomic i64 %37, ptr %29 release, align 8
  br label %40

38:                                               ; preds = %26
  %39 = load i64, ptr %11, align 8
  store atomic i64 %39, ptr %29 seq_cst, align 8
  br label %40

40:                                               ; preds = %38, %36, %34
  %41 = getelementptr inbounds %"class.cmDebugger::cmDebuggerAdapter", ptr %13, i32 0, i32 14
  call void @_ZNSt6atomicIbE5storeEbSt12memory_order(ptr noundef nonnull align 1 dereferenceable(1) %41, i1 noundef zeroext false, i32 noundef 5) #3
  ret void
}