; Function Attrs: mustprogress nofree norecurse nounwind willreturn memory(argmem: readwrite) uwtable
define dso_local void @_ZN10cmDebugger17cmDebuggerAdapter17ClearStepRequestsEv(ptr nocapture noundef nonnull writeonly align 8 dereferenceable(193) %0) local_unnamed_addr #5 align 2 {
  %2 = getelementptr inbounds i8, ptr %0, i64 120
  store atomic i64 -2147483648, ptr %2 seq_cst, align 8
  %3 = getelementptr inbounds i8, ptr %0, i64 128
  store atomic i8 0, ptr %3 seq_cst, align 8
  %4 = getelementptr inbounds i8, ptr %0, i64 136
  store atomic i64 -2147483648, ptr %4 seq_cst, align 8
  %5 = getelementptr inbounds i8, ptr %0, i64 144
  store atomic i8 0, ptr %5 seq_cst, align 8
  ret void
}